target datalayout = "e-m:e-p270:32:32-p271:32:32-p272:64:64-i64:64-i128:128-f80:128-n8:16:32:64-S128"
target triple = "x86_64-pc-linux-gnu"

%struct.SurfaceDataRasInfo = type { %struct.SurfaceDataBounds, ptr, i32, i32, i32, i32, ptr, ptr, ptr, ptr, ptr, ptr, i32, %union.anon.0 }
%struct.SurfaceDataBounds = type { i32, i32, i32, i32 }
%union.anon.0 = type { ptr, [56 x i8] }

; Function Attrs: nounwind uwtable
define hidden void @AnyIntSetRect(ptr noundef %0, i32 noundef %1, i32 noundef %2, i32 noundef %3, i32 noundef %4, i32 noundef %5, ptr noundef %6, ptr noundef %7) #0 {
  %9 = alloca ptr, align 8
  %10 = alloca i32, align 4
  %11 = alloca i32, align 4
  %12 = alloca i32, align 4
  %13 = alloca i32, align 4
  %14 = alloca i32, align 4
  %15 = alloca ptr, align 8
  %16 = alloca ptr, align 8
  %17 = alloca ptr, align 8
  %18 = alloca i32, align 4
  %19 = alloca i32, align 4
  %20 = alloca i32, align 4
  %21 = alloca i32, align 4
  store ptr %0, ptr %9, align 8
  store i32 %1, ptr %10, align 4
  store i32 %2, ptr %11, align 4
  store i32 %3, ptr %12, align 4
  store i32 %4, ptr %13, align 4
  store i32 %5, ptr %14, align 4
  store ptr %6, ptr %15, align 8
  store ptr %7, ptr %16, align 8
  %22 = load ptr, ptr %9, align 8
  %23 = getelementptr inbounds %struct.SurfaceDataRasInfo, ptr %22, i32 0, i32 4
  %24 = load i32, ptr %23, align 8
  store i32 %24, ptr %18, align 4
  %25 = load i32, ptr %13, align 4
  %26 = load i32, ptr %11, align 4
  %27 = sub nsw i32 %25, %26
  store i32 %27, ptr %19, align 4
  %28 = load i32, ptr %12, align 4
  %29 = load i32, ptr %10, align 4
  %30 = sub nsw i32 %28, %29
  store i32 %30, ptr %20, align 4
  %31 = load ptr, ptr %9, align 8
  %32 = getelementptr inbounds %struct.SurfaceDataRasInfo, ptr %31, i32 0, i32 1
  %33 = load ptr, ptr %32, align 8
  %34 = ptrtoint ptr %33 to i64
  %35 = load i32, ptr %11, align 4
  %36 = sext i32 %35 to i64
  %37 = load i32, ptr %18, align 4
  %38 = sext i32 %37 to i64
  %39 = mul nsw i64 %36, %38
  %40 = load i32, ptr %10, align 4
  %41 = sext i32 %40 to i64
  %42 = mul nsw i64 %41, 4
  %43 = add nsw i64 %39, %42
  %44 = add nsw i64 %34, %43
  %45 = inttoptr i64 %44 to ptr
  store ptr %45, ptr %17, align 8
  br label %46

46:                                               ; preds = %65, %8
  store i32 0, ptr %21, align 4
  br label %47

47:                                               ; preds = %53, %46
  %48 = load i32, ptr %14, align 4
  %49 = load ptr, ptr %17, align 8
  %50 = load i32, ptr %21, align 4
  %51 = zext i32 %50 to i64
  %52 = getelementptr inbounds i32, ptr %49, i64 %51
  store i32 %48, ptr %52, align 4
  br label %53

53:                                               ; preds = %47
  %54 = load i32, ptr %21, align 4
  %55 = add i32 %54, 1
  store i32 %55, ptr %21, align 4
  %56 = load i32, ptr %20, align 4
  %57 = icmp ult i32 %55, %56
  br i1 %57, label %47, label %58, !llvm.loop !6

58:                                               ; preds = %53
  %59 = load ptr, ptr %17, align 8
  %60 = ptrtoint ptr %59 to i64
  %61 = load i32, ptr %18, align 4
  %62 = sext i32 %61 to i64
  %63 = add nsw i64 %60, %62
  %64 = inttoptr i64 %63 to ptr
  store ptr %64, ptr %17, align 8
  br label %65

65:                                               ; preds = %58
  %66 = load i32, ptr %19, align 4
  %67 = add i32 %66, -1
  store i32 %67, ptr %19, align 4
  %68 = icmp ugt i32 %67, 0
  br i1 %68, label %46, label %69, !llvm.loop !8

69:                                               ; preds = %65
  ret void
}