; Function Attrs: nofree norecurse nosync nounwind memory(write, argmem: readwrite, inaccessiblemem: none) uwtable
define hidden void @AnyIntSetRect(ptr nocapture noundef readonly %0, i32 noundef %1, i32 noundef %2, i32 noundef %3, i32 noundef %4, i32 noundef %5, ptr nocapture readnone %6, ptr nocapture readnone %7) #0 {
  %9 = getelementptr inbounds i8, ptr %0, i64 32
  %10 = load i32, ptr %9, align 8
  %11 = sub nsw i32 %4, %2
  %12 = sub nsw i32 %3, %1
  %13 = getelementptr inbounds i8, ptr %0, i64 16
  %14 = load ptr, ptr %13, align 8
  %15 = ptrtoint ptr %14 to i64
  %16 = sext i32 %2 to i64
  %17 = sext i32 %10 to i64
  %18 = mul nsw i64 %17, %16
  %19 = sext i32 %1 to i64
  %20 = shl nsw i64 %19, 2
  %21 = add nsw i64 %18, %20
  %22 = add nsw i64 %21, %15
  %umax = tail call i32 @llvm.umax.i32(i32 %12, i32 1)
  %wide.trip.count = zext i32 %umax to i64
  br label %23

23:                                               ; preds = %26, %8
  %.017 = phi i32 [ %11, %8 ], [ %28, %26 ]
  %.016.in = phi i64 [ %22, %8 ], [ %27, %26 ]
  %.016 = inttoptr i64 %.016.in to ptr
  br label %24

24:                                               ; preds = %24, %23
  %indvars.iv = phi i64 [ %indvars.iv.next, %24 ], [ 0, %23 ]
  %25 = getelementptr inbounds i32, ptr %.016, i64 %indvars.iv
  store i32 %5, ptr %25, align 4
  %indvars.iv.next = add nuw nsw i64 %indvars.iv, 1
  %exitcond.not = icmp eq i64 %indvars.iv.next, %wide.trip.count
  br i1 %exitcond.not, label %26, label %24, !llvm.loop !6

26:                                               ; preds = %24
  %27 = add nsw i64 %.016.in, %17
  %28 = add i32 %.017, -1
  %.not = icmp eq i32 %28, 0
  br i1 %.not, label %29, label %23, !llvm.loop !8

29:                                               ; preds = %26
  ret void
}